; Function Attrs: mustprogress uwtable
define hidden void @_ZN2dd11pdd_manager4pushEj(ptr noundef nonnull align 8 dereferenceable(952) %0, i32 noundef %1) local_unnamed_addr #3 align 2 {
  %3 = getelementptr inbounds nuw i8, ptr %0, i64 112
  %4 = load ptr, ptr %3, align 8, !tbaa !53
  %5 = icmp eq ptr %4, null
  br i1 %5, label %12, label %6

6:                                                ; preds = %2
  %7 = getelementptr inbounds i8, ptr %4, i64 -4
  %8 = load i32, ptr %7, align 4, !tbaa !83
  %9 = getelementptr inbounds i8, ptr %4, i64 -8
  %10 = load i32, ptr %9, align 4, !tbaa !83
  %11 = icmp eq i32 %8, %10
  br i1 %11, label %12, label %_ZN6vectorIjLb0EjE9push_backERKj.exit

12:                                               ; preds = %6, %2
  tail call void @_ZN6vectorIjLb0EjE13expand_vectorEv(ptr noundef nonnull align 8 dereferenceable(8) %3)
  %.pre.i = load ptr, ptr %3, align 8, !tbaa !53
  %.phi.trans.insert.i = getelementptr inbounds i8, ptr %.pre.i, i64 -4
  %.pre2.i = load i32, ptr %.phi.trans.insert.i, align 4, !tbaa !83
  br label %_ZN6vectorIjLb0EjE9push_backERKj.exit

_ZN6vectorIjLb0EjE9push_backERKj.exit:            ; preds = %6, %12
  %13 = phi i32 [ %.pre2.i, %12 ], [ %8, %6 ]
  %14 = phi ptr [ %.pre.i, %12 ], [ %4, %6 ]
  %15 = getelementptr inbounds i8, ptr %14, i64 -4
  %16 = zext i32 %13 to i64
  %17 = getelementptr inbounds nuw i32, ptr %14, i64 %16
  store i32 %1, ptr %17, align 4, !tbaa !83
  %18 = add i32 %13, 1
  store i32 %18, ptr %15, align 4, !tbaa !83
  ret void
}